; ModuleID = '44/424.c'
source_filename = "44/424.c"
target datalayout = "e-m:e-p270:32:32-p271:32:32-p272:64:64-i64:64-f80:128-n8:16:32:64-S128"
target triple = "x86_64-pc-linux-gnu"

@.str = private unnamed_addr constant [3 x i8] c"%d\00", align 1
@.str.1 = private unnamed_addr constant [5 x i8] c"-%d\0A\00", align 1
@.str.2 = private unnamed_addr constant [4 x i8] c"%d\0A\00", align 1

; Function Attrs: noinline nounwind uwtable
define dso_local i32 @reverse(i32 %0) #0 {
  %2 = alloca i32, align 4
  %3 = alloca i32, align 4
  %4 = alloca i32, align 4
  %5 = alloca [100 x i32], align 16
  %6 = alloca i32, align 4
  %7 = alloca i32, align 4
  store i32 %0, i32* %3, align 4
  store i32 0, i32* %7, align 4
  %8 = load i32, i32* %3, align 4
  %9 = icmp slt i32 %8, 10
  br i1 %9, label %10, label %12

10:                                               ; preds = %1
  %11 = load i32, i32* %3, align 4
  store i32 %11, i32* %2, align 4
  br label %58

12:                                               ; preds = %1
  %13 = load i32, i32* %3, align 4
  %14 = icmp sge i32 %13, 10
  br i1 %14, label %15, label %58

15:                                               ; preds = %12
  store i32 0, i32* %4, align 4
  br label %16

16:                                               ; preds = %15, %30
  %17 = load i32, i32* %3, align 4
  %18 = icmp sgt i32 %17, 0
  br i1 %18, label %19, label %29

19:                                               ; preds = %16
  %20 = load i32, i32* %3, align 4
  %21 = srem i32 %20, 10
  %22 = load i32, i32* %4, align 4
  %23 = sext i32 %22 to i64
  %24 = getelementptr inbounds [100 x i32], [100 x i32]* %5, i64 0, i64 %23
  store i32 %21, i32* %24, align 4
  %25 = load i32, i32* %4, align 4
  %26 = add nsw i32 %25, 1
  store i32 %26, i32* %4, align 4
  %27 = load i32, i32* %3, align 4
  %28 = sdiv i32 %27, 10
  store i32 %28, i32* %3, align 4
  br label %30

29:                                               ; preds = %16
  br label %31

30:                                               ; preds = %19
  br label %16

31:                                               ; preds = %29
  store i32 0, i32* %6, align 4
  br label %32

32:                                               ; preds = %53, %31
  %33 = load i32, i32* %6, align 4
  %34 = load i32, i32* %4, align 4
  %35 = icmp slt i32 %33, %34
  br i1 %35, label %36, label %56

36:                                               ; preds = %32
  %37 = load i32, i32* %6, align 4
  %38 = sitofp i32 %37 to double
  %39 = call double @pow(double 1.000000e+01, double %38) #3
  %40 = load i32, i32* %4, align 4
  %41 = sub nsw i32 %40, 1
  %42 = load i32, i32* %6, align 4
  %43 = sub nsw i32 %41, %42
  %44 = sext i32 %43 to i64
  %45 = getelementptr inbounds [100 x i32], [100 x i32]* %5, i64 0, i64 %44
  %46 = load i32, i32* %45, align 4
  %47 = sitofp i32 %46 to double
  %48 = fmul double %39, %47
  %49 = load i32, i32* %7, align 4
  %50 = sitofp i32 %49 to double
  %51 = fadd double %50, %48
  %52 = fptosi double %51 to i32
  store i32 %52, i32* %7, align 4
  br label %53

53:                                               ; preds = %36
  %54 = load i32, i32* %6, align 4
  %55 = add nsw i32 %54, 1
  store i32 %55, i32* %6, align 4
  br label %32

56:                                               ; preds = %32
  %57 = load i32, i32* %7, align 4
  store i32 %57, i32* %2, align 4
  br label %58

58:                                               ; preds = %10, %56, %12
  %59 = load i32, i32* %2, align 4
  ret i32 %59
}

; Function Attrs: nounwind
declare dso_local double @pow(double, double) #1

; Function Attrs: noinline nounwind uwtable
define dso_local i32 @main() #0 {
  %1 = alloca i32, align 4
  %2 = alloca i32, align 4
  %3 = alloca [6 x i32], align 16
  %4 = alloca [6 x i32], align 16
  store i32 0, i32* %1, align 4
  store i32 0, i32* %2, align 4
  br label %5

5:                                                ; preds = %13, %0
  %6 = load i32, i32* %2, align 4
  %7 = icmp slt i32 %6, 6
  br i1 %7, label %8, label %16

8:                                                ; preds = %5
  %9 = load i32, i32* %2, align 4
  %10 = sext i32 %9 to i64
  %11 = getelementptr inbounds [6 x i32], [6 x i32]* %3, i64 0, i64 %10
  %12 = call i32 (i8*, ...) @__isoc99_scanf(i8* getelementptr inbounds ([3 x i8], [3 x i8]* @.str, i64 0, i64 0), i32* %11)
  br label %13

13:                                               ; preds = %8
  %14 = load i32, i32* %2, align 4
  %15 = add nsw i32 %14, 1
  store i32 %15, i32* %2, align 4
  br label %5

16:                                               ; preds = %5
  store i32 0, i32* %2, align 4
  br label %17

17:                                               ; preds = %63, %16
  %18 = load i32, i32* %2, align 4
  %19 = icmp slt i32 %18, 6
  br i1 %19, label %20, label %66

20:                                               ; preds = %17
  %21 = load i32, i32* %2, align 4
  %22 = sext i32 %21 to i64
  %23 = getelementptr inbounds [6 x i32], [6 x i32]* %3, i64 0, i64 %22
  %24 = load i32, i32* %23, align 4
  %25 = icmp slt i32 %24, 0
  br i1 %25, label %26, label %48

26:                                               ; preds = %20
  %27 = load i32, i32* %2, align 4
  %28 = sext i32 %27 to i64
  %29 = getelementptr inbounds [6 x i32], [6 x i32]* %3, i64 0, i64 %28
  %30 = load i32, i32* %29, align 4
  %31 = sub nsw i32 0, %30
  %32 = load i32, i32* %2, align 4
  %33 = sext i32 %32 to i64
  %34 = getelementptr inbounds [6 x i32], [6 x i32]* %3, i64 0, i64 %33
  store i32 %31, i32* %34, align 4
  %35 = load i32, i32* %2, align 4
  %36 = sext i32 %35 to i64
  %37 = getelementptr inbounds [6 x i32], [6 x i32]* %3, i64 0, i64 %36
  %38 = load i32, i32* %37, align 4
  %39 = call i32 @reverse(i32 %38)
  %40 = load i32, i32* %2, align 4
  %41 = sext i32 %40 to i64
  %42 = getelementptr inbounds [6 x i32], [6 x i32]* %4, i64 0, i64 %41
  store i32 %39, i32* %42, align 4
  %43 = load i32, i32* %2, align 4
  %44 = sext i32 %43 to i64
  %45 = getelementptr inbounds [6 x i32], [6 x i32]* %4, i64 0, i64 %44
  %46 = load i32, i32* %45, align 4
  %47 = call i32 (i8*, ...) @printf(i8* getelementptr inbounds ([5 x i8], [5 x i8]* @.str.1, i64 0, i64 0), i32 %46)
  br label %62

48:                                               ; preds = %20
  %49 = load i32, i32* %2, align 4
  %50 = sext i32 %49 to i64
  %51 = getelementptr inbounds [6 x i32], [6 x i32]* %3, i64 0, i64 %50
  %52 = load i32, i32* %51, align 4
  %53 = call i32 @reverse(i32 %52)
  %54 = load i32, i32* %2, align 4
  %55 = sext i32 %54 to i64
  %56 = getelementptr inbounds [6 x i32], [6 x i32]* %4, i64 0, i64 %55
  store i32 %53, i32* %56, align 4
  %57 = load i32, i32* %2, align 4
  %58 = sext i32 %57 to i64
  %59 = getelementptr inbounds [6 x i32], [6 x i32]* %4, i64 0, i64 %58
  %60 = load i32, i32* %59, align 4
  %61 = call i32 (i8*, ...) @printf(i8* getelementptr inbounds ([4 x i8], [4 x i8]* @.str.2, i64 0, i64 0), i32 %60)
  br label %62

62:                                               ; preds = %48, %26
  br label %63

63:                                               ; preds = %62
  %64 = load i32, i32* %2, align 4
  %65 = add nsw i32 %64, 1
  store i32 %65, i32* %2, align 4
  br label %17

66:                                               ; preds = %17
  ret i32 0
}

declare dso_local i32 @__isoc99_scanf(i8*, ...) #2

declare dso_local i32 @printf(i8*, ...) #2


!llvm.module.flags = !{!0}
!llvm.ident = !{!1}

!0 = !{i32 1, !"wchar_size", i32 4}
!1 = !{!"clang version 10.0.0-4ubuntu1 "}
